ccopy_reg
_reconstructor
p0
(cargparse
Namespace
p1
c__builtin__
object
p2
Ntp3
Rp4
(dp5
S'local_threads'
p6
S'*'
p7
sS'data_path'
p8
S'datasets/ml-20m/'
p9
sS'rank'
p10
I12
sS'drop_rare_features'
p11
I10
sS'checkpoint_dir'
p12
S'/home/maxikov/spark_dir'
p13
sS'drop_missing_movies'
p14
I00
sS'cross_validation'
p15
I70
sS'metadata_sources'
p16
(lp17
S'years'
p18
aS'genres'
p19
aS'average_rating'
p20
aS'tvtropes'
p21
asS'lmbda'
p22
F0.02
sS'tvtropes_file'
p23
S'datasets/dbtropes/tropes.csv'
p24
sS'num_partitions'
p25
I7
sS'regression_users'
p26
I00
sS'persist_dir'
p27
S'logs/metadata_regression_products_tropes_linear.state'
p28
sS'force_qii'
p29
I00
sS'predict_product_features'
p30
I00
sS'features_trim_percentile'
p31
I0
sS'predict_metadata'
p32
I01
sS'spark_executor_memory'
p33
S'20g'
p34
sS'temp_dir'
p35
S'/home/maxikov/spark_dir'
p36
sS'output_model'
p37
NsS'override_args'
p38
I00
sS'movies_file'
p39
S'datasets/ml-20m/ml-20m.imdb.medium.csv'
p40
sS'non_negative'
p41
I01
sS'nbins'
p42
I32
sS'filter_data_set'
p43
I10
sS'regression_model'
p44
S'linear'
p45
sS'num_iter'
p46
I300
sb.